; ModuleID = '7/1152.c'
source_filename = "7/1152.c"
target datalayout = "e-m:e-p270:32:32-p271:32:32-p272:64:64-i64:64-f80:128-n8:16:32:64-S128"
target triple = "x86_64-pc-linux-gnu"

@.str = private unnamed_addr constant [3 x i8] c"%s\00", align 1

; Function Attrs: noinline nounwind uwtable
define dso_local i32 @main() #0 {
  %1 = alloca i32, align 4
  %2 = alloca [257 x i8], align 16
  %3 = alloca [257 x i8], align 16
  %4 = alloca [257 x i8], align 16
  %5 = alloca i32, align 4
  %6 = alloca i32, align 4
  %7 = alloca i32, align 4
  %8 = alloca i32, align 4
  %9 = alloca i32, align 4
  store i32 0, i32* %1, align 4
  store i32 0, i32* %6, align 4
  store i32 0, i32* %9, align 4
  %10 = getelementptr inbounds [257 x i8], [257 x i8]* %2, i64 0, i64 0
  %11 = call i32 (i8*, ...) @__isoc99_scanf(i8* getelementptr inbounds ([3 x i8], [3 x i8]* @.str, i64 0, i64 0), i8* %10)
  %12 = getelementptr inbounds [257 x i8], [257 x i8]* %3, i64 0, i64 0
  %13 = call i32 (i8*, ...) @__isoc99_scanf(i8* getelementptr inbounds ([3 x i8], [3 x i8]* @.str, i64 0, i64 0), i8* %12)
  %14 = getelementptr inbounds [257 x i8], [257 x i8]* %4, i64 0, i64 0
  %15 = call i32 (i8*, ...) @__isoc99_scanf(i8* getelementptr inbounds ([3 x i8], [3 x i8]* @.str, i64 0, i64 0), i8* %14)
  %16 = getelementptr inbounds [257 x i8], [257 x i8]* %2, i64 0, i64 0
  %17 = call i64 @strlen(i8* %16) #3
  %18 = trunc i64 %17 to i32
  store i32 %18, i32* %7, align 4
  %19 = getelementptr inbounds [257 x i8], [257 x i8]* %3, i64 0, i64 0
  %20 = call i64 @strlen(i8* %19) #3
  %21 = trunc i64 %20 to i32
  store i32 %21, i32* %8, align 4
  store i32 0, i32* %5, align 4
  br label %22

22:                                               ; preds = %55, %0
  %23 = load i32, i32* %5, align 4
  %24 = load i32, i32* %7, align 4
  %25 = icmp slt i32 %23, %24
  br i1 %25, label %26, label %58

26:                                               ; preds = %22
  %27 = load i32, i32* %5, align 4
  %28 = sext i32 %27 to i64
  %29 = getelementptr inbounds [257 x i8], [257 x i8]* %2, i64 0, i64 %28
  %30 = load i8, i8* %29, align 1
  %31 = sext i8 %30 to i32
  %32 = load i32, i32* %6, align 4
  %33 = sext i32 %32 to i64
  %34 = getelementptr inbounds [257 x i8], [257 x i8]* %3, i64 0, i64 %33
  %35 = load i8, i8* %34, align 1
  %36 = sext i8 %35 to i32
  %37 = icmp eq i32 %31, %36
  br i1 %37, label %38, label %47

38:                                               ; preds = %26
  %39 = load i32, i32* %9, align 4
  %40 = load i32, i32* %8, align 4
  %41 = icmp slt i32 %39, %40
  br i1 %41, label %42, label %47

42:                                               ; preds = %38
  %43 = load i32, i32* %6, align 4
  %44 = add nsw i32 %43, 1
  store i32 %44, i32* %6, align 4
  %45 = load i32, i32* %9, align 4
  %46 = add nsw i32 %45, 1
  store i32 %46, i32* %9, align 4
  br label %54

47:                                               ; preds = %38, %26
  %48 = load i32, i32* %9, align 4
  %49 = load i32, i32* %8, align 4
  %50 = icmp sge i32 %48, %49
  br i1 %50, label %51, label %52

51:                                               ; preds = %47
  br label %58

52:                                               ; preds = %47
  store i32 0, i32* %9, align 4
  store i32 0, i32* %6, align 4
  br label %53

53:                                               ; preds = %52
  br label %54

54:                                               ; preds = %53, %42
  br label %55

55:                                               ; preds = %54
  %56 = load i32, i32* %5, align 4
  %57 = add nsw i32 %56, 1
  store i32 %57, i32* %5, align 4
  br label %22

58:                                               ; preds = %51, %22
  %59 = load i32, i32* %9, align 4
  %60 = load i32, i32* %8, align 4
  %61 = icmp eq i32 %59, %60
  br i1 %61, label %62, label %84

62:                                               ; preds = %58
  store i32 0, i32* %6, align 4
  %63 = load i32, i32* %5, align 4
  %64 = load i32, i32* %8, align 4
  %65 = sub nsw i32 %63, %64
  store i32 %65, i32* %5, align 4
  br label %66

66:                                               ; preds = %78, %62
  %67 = load i32, i32* %6, align 4
  %68 = load i32, i32* %8, align 4
  %69 = icmp slt i32 %67, %68
  br i1 %69, label %70, label %83

70:                                               ; preds = %66
  %71 = load i32, i32* %6, align 4
  %72 = sext i32 %71 to i64
  %73 = getelementptr inbounds [257 x i8], [257 x i8]* %4, i64 0, i64 %72
  %74 = load i8, i8* %73, align 1
  %75 = load i32, i32* %5, align 4
  %76 = sext i32 %75 to i64
  %77 = getelementptr inbounds [257 x i8], [257 x i8]* %2, i64 0, i64 %76
  store i8 %74, i8* %77, align 1
  br label %78

78:                                               ; preds = %70
  %79 = load i32, i32* %6, align 4
  %80 = add nsw i32 %79, 1
  store i32 %80, i32* %6, align 4
  %81 = load i32, i32* %5, align 4
  %82 = add nsw i32 %81, 1
  store i32 %82, i32* %5, align 4
  br label %66

83:                                               ; preds = %66
  br label %84

84:                                               ; preds = %83, %58
  %85 = getelementptr inbounds [257 x i8], [257 x i8]* %2, i64 0, i64 0
  %86 = call i32 (i8*, ...) @printf(i8* getelementptr inbounds ([3 x i8], [3 x i8]* @.str, i64 0, i64 0), i8* %85)
  ret i32 0
}

declare dso_local i32 @__isoc99_scanf(i8*, ...) #1

; Function Attrs: nounwind readonly
declare dso_local i64 @strlen(i8*) #2

declare dso_local i32 @printf(i8*, ...) #1


!llvm.module.flags = !{!0}
!llvm.ident = !{!1}

!0 = !{i32 1, !"wchar_size", i32 4}
!1 = !{!"clang version 10.0.0-4ubuntu1 "}
